; Function Attrs: nounwind uwtable
define ptr @l_Lake_RBArray_foldl___rarg___boxed(ptr noundef %0, ptr noundef %1, ptr noundef %2) #0 {
  %4 = getelementptr inbounds nuw i8, ptr %2, i64 16
  %5 = load ptr, ptr %4, align 8, !tbaa !4
  %6 = getelementptr i8, ptr %5, i64 8
  %.val.i = load i64, ptr %6, align 8, !tbaa !14
  %.mask.i = and i64 %.val.i, 9223372036854775807
  %.not.i5 = icmp eq i64 %.mask.i, 0
  br i1 %.not.i5, label %lean_dec.exit25.i, label %lean_dec.exit.i

lean_dec.exit25.i:                                ; preds = %3
  %7 = ptrtoint ptr %0 to i64
  %8 = and i64 %7, 1
  %.not37.i = icmp eq i64 %8, 0
  br i1 %.not37.i, label %9, label %l_Lake_RBArray_foldl___rarg.exit

9:                                                ; preds = %lean_dec.exit25.i
  %10 = load i32, ptr %0, align 4, !tbaa !8
  %11 = icmp sgt i32 %10, 1
  br i1 %11, label %12, label %14, !prof !13

12:                                               ; preds = %9
  %13 = add nsw i32 %10, -1
  store i32 %13, ptr %0, align 4, !tbaa !8
  br label %l_Lake_RBArray_foldl___rarg.exit

14:                                               ; preds = %9
  %.not.i26.i = icmp eq i32 %10, 0
  br i1 %.not.i26.i, label %l_Lake_RBArray_foldl___rarg.exit, label %15

15:                                               ; preds = %14
  tail call void @lean_dec_ref_cold(ptr noundef nonnull %0) #4
  br label %l_Lake_RBArray_foldl___rarg.exit

lean_dec.exit.i:                                  ; preds = %3
  %16 = tail call ptr @l_Array_foldlMUnsafe_fold___at_Lake_RBArray_foldl___spec__1___rarg(ptr noundef %0, ptr noundef nonnull %5, i64 noundef 0, i64 noundef %.mask.i, ptr noundef %1)
  br label %l_Lake_RBArray_foldl___rarg.exit

l_Lake_RBArray_foldl___rarg.exit:                 ; preds = %lean_dec.exit25.i, %12, %14, %15, %lean_dec.exit.i
  %.0.i = phi ptr [ %16, %lean_dec.exit.i ], [ %1, %15 ], [ %1, %14 ], [ %1, %12 ], [ %1, %lean_dec.exit25.i ]
  %17 = ptrtoint ptr %2 to i64
  %18 = and i64 %17, 1
  %.not = icmp eq i64 %18, 0
  br i1 %.not, label %19, label %lean_dec.exit

19:                                               ; preds = %l_Lake_RBArray_foldl___rarg.exit
  %20 = load i32, ptr %2, align 4, !tbaa !8
  %21 = icmp sgt i32 %20, 1
  br i1 %21, label %22, label %24, !prof !13

22:                                               ; preds = %19
  %23 = add nsw i32 %20, -1
  store i32 %23, ptr %2, align 4, !tbaa !8
  br label %lean_dec.exit

24:                                               ; preds = %19
  %.not.i = icmp eq i32 %20, 0
  br i1 %.not.i, label %lean_dec.exit, label %25

25:                                               ; preds = %24
  tail call void @lean_dec_ref_cold(ptr noundef nonnull %2) #4
  br label %lean_dec.exit

lean_dec.exit:                                    ; preds = %25, %24, %22, %l_Lake_RBArray_foldl___rarg.exit
  ret ptr %.0.i
}